target datalayout = "e-m:e-p270:32:32-p271:32:32-p272:64:64-i64:64-i128:128-f80:128-n8:16:32:64-S128"
target triple = "x86_64-pc-linux-gnu"

%union.anon.0 = type { float }

; Function Attrs: nounwind uwtable
define signext i16 @stbte__extract_short(float noundef %0, i32 noundef %1) #0 {
  %3 = alloca float, align 4
  %4 = alloca i32, align 4
  %5 = alloca %union.anon.0, align 4
  store float %0, ptr %3, align 4, !tbaa !64
  store i32 %1, ptr %4, align 4, !tbaa !13
  call void @llvm.lifetime.start.p0(i64 4, ptr %5) #8
  %6 = load float, ptr %3, align 4, !tbaa !64
  store float %6, ptr %5, align 4, !tbaa !60
  %7 = load i32, ptr %4, align 4, !tbaa !13
  %8 = sext i32 %7 to i64
  %9 = getelementptr inbounds [2 x i16], ptr %5, i64 0, i64 %8
  %10 = load i16, ptr %9, align 2, !tbaa !60
  call void @llvm.lifetime.end.p0(i64 4, ptr %5) #8
  ret i16 %10
}