; Function Attrs: mustprogress nofree norecurse nosync nounwind willreturn memory(none) uwtable
define signext i16 @stbte__extract_short(float noundef %0, i32 noundef %1) local_unnamed_addr #11 {
  %3 = alloca %union.anon.0, align 4
  call void @llvm.lifetime.start.p0(i64 4, ptr nonnull %3) #26
  store float %0, ptr %3, align 4, !tbaa !47
  %4 = sext i32 %1 to i64
  %5 = getelementptr inbounds [2 x i16], ptr %3, i64 0, i64 %4
  %6 = load i16, ptr %5, align 2, !tbaa !47
  call void @llvm.lifetime.end.p0(i64 4, ptr nonnull %3) #26
  ret i16 %6
}